target datalayout = "e-m:e-p270:32:32-p271:32:32-p272:64:64-i64:64-i128:128-f80:128-n8:16:32:64-S128"
target triple = "x86_64-pc-linux-gnu"

%"class.cv::Mat" = type { i32, i32, i32, i32, ptr, ptr, ptr, ptr, ptr, ptr, %"struct.cv::MatSize", %"struct.cv::MatStep" }
%"struct.cv::MatSize" = type { ptr }
%"struct.cv::MatStep" = type { ptr, [2 x i64] }
%"class.cv::videostab::FromFileMotionReader" = type { %"class.cv::videostab::ImageMotionEstimatorBase.base", %"class.std::basic_ifstream" }
%"class.cv::videostab::ImageMotionEstimatorBase.base" = type <{ ptr, i32 }>
%"class.std::basic_ifstream" = type { %"class.std::basic_istream.base", %"class.std::basic_filebuf", %"class.std::basic_ios" }
%"class.std::basic_istream.base" = type { ptr, i64 }
%"class.std::basic_filebuf" = type { %"class.std::basic_streambuf", %union.pthread_mutex_t, %"class.std::__basic_file", i32, %struct.__mbstate_t, %struct.__mbstate_t, %struct.__mbstate_t, ptr, i64, i8, i8, i8, i8, ptr, ptr, i8, ptr, ptr, i64, ptr, ptr }
%"class.std::basic_streambuf" = type { ptr, ptr, ptr, ptr, ptr, ptr, ptr, %"class.std::locale" }
%"class.std::locale" = type { ptr }
%union.pthread_mutex_t = type { %struct.__pthread_mutex_s }
%struct.__pthread_mutex_s = type { i32, i32, i32, i32, i32, i16, i16, %struct.__pthread_internal_list }
%struct.__pthread_internal_list = type { ptr, ptr }
%"class.std::__basic_file" = type <{ ptr, i8, [7 x i8] }>
%struct.__mbstate_t = type { i32, %union.anon.18 }
%union.anon.18 = type { i32 }
%"class.std::basic_ios" = type { %"class.std::ios_base", ptr, i8, i8, ptr, ptr, ptr, ptr }
%"class.std::ios_base" = type { ptr, i64, i64, i32, i32, i32, ptr, %"struct.std::ios_base::_Words", [8 x %"struct.std::ios_base::_Words"], i32, ptr, %"class.std::locale" }
%"struct.std::ios_base::_Words" = type { ptr, i64 }

; Function Attrs: mustprogress nounwind uwtable
define linkonce_odr hidden noundef nonnull align 4 dereferenceable(4) ptr @_ZN2cv3Mat2atIfEERT_ii(ptr noundef nonnull align 8 dereferenceable(96) %0, i32 noundef %1, i32 noundef %2) #7 comdat align 2 {
  %4 = alloca ptr, align 8
  %5 = alloca i32, align 4
  %6 = alloca i32, align 4
  store ptr %0, ptr %4, align 8
  store i32 %1, ptr %5, align 4
  store i32 %2, ptr %6, align 4
  %7 = load ptr, ptr %4, align 8
  %8 = getelementptr inbounds %"class.cv::Mat", ptr %7, i32 0, i32 4
  %9 = load ptr, ptr %8, align 8
  %10 = getelementptr inbounds %"class.cv::Mat", ptr %7, i32 0, i32 11
  %11 = getelementptr inbounds %"struct.cv::MatStep", ptr %10, i32 0, i32 0
  %12 = load ptr, ptr %11, align 8
  %13 = getelementptr inbounds i64, ptr %12, i64 0
  %14 = load i64, ptr %13, align 8
  %15 = load i32, ptr %5, align 4
  %16 = sext i32 %15 to i64
  %17 = mul i64 %14, %16
  %18 = getelementptr inbounds i8, ptr %9, i64 %17
  %19 = load i32, ptr %6, align 4
  %20 = sext i32 %19 to i64
  %21 = getelementptr inbounds float, ptr %18, i64 %20
  ret ptr %21
}

; Function Attrs: mustprogress uwtable
define void @_ZN2cv9videostab20FromFileMotionReader8estimateERKNS_3MatES4_Pb(ptr dead_on_unwind noalias writable sret(%"class.cv::Mat") align 8 %0, ptr noundef nonnull align 8 dereferenceable(536) %1, ptr noundef nonnull align 8 dereferenceable(96) %2, ptr noundef nonnull align 8 dereferenceable(96) %3, ptr noundef %4) unnamed_addr #4 align 2 personality ptr @__gxx_personality_v0 {
  %6 = alloca ptr, align 8
  %7 = alloca ptr, align 8
  %8 = alloca ptr, align 8
  %9 = alloca ptr, align 8
  %10 = alloca ptr, align 8
  %11 = alloca i1, align 1
  %12 = alloca i8, align 1
  %13 = alloca ptr, align 8
  %14 = alloca i32, align 4
  store ptr %0, ptr %6, align 8
  store ptr %1, ptr %7, align 8
  store ptr %2, ptr %8, align 8
  store ptr %3, ptr %9, align 8
  store ptr %4, ptr %10, align 8
  %15 = load ptr, ptr %7, align 8
  store i1 false, ptr %11, align 1
  call void @_ZN2cv3MatC1Eiii(ptr noundef nonnull align 8 dereferenceable(96) %0, i32 noundef 3, i32 noundef 3, i32 noundef 5)
  %16 = getelementptr inbounds %"class.cv::videostab::FromFileMotionReader", ptr %15, i32 0, i32 1
  %17 = invoke noundef nonnull align 4 dereferenceable(4) ptr @_ZN2cv3Mat2atIfEERT_ii(ptr noundef nonnull align 8 dereferenceable(96) %0, i32 noundef 0, i32 noundef 0)
          to label %18 unwind label %62

18:                                               ; preds = %5
  %19 = invoke noundef nonnull align 8 dereferenceable(16) ptr @_ZNSirsERf(ptr noundef nonnull align 8 dereferenceable(16) %16, ptr noundef nonnull align 4 dereferenceable(4) %17)
          to label %20 unwind label %62

20:                                               ; preds = %18
  %21 = invoke noundef nonnull align 4 dereferenceable(4) ptr @_ZN2cv3Mat2atIfEERT_ii(ptr noundef nonnull align 8 dereferenceable(96) %0, i32 noundef 0, i32 noundef 1)
          to label %22 unwind label %62

22:                                               ; preds = %20
  %23 = invoke noundef nonnull align 8 dereferenceable(16) ptr @_ZNSirsERf(ptr noundef nonnull align 8 dereferenceable(16) %19, ptr noundef nonnull align 4 dereferenceable(4) %21)
          to label %24 unwind label %62

24:                                               ; preds = %22
  %25 = invoke noundef nonnull align 4 dereferenceable(4) ptr @_ZN2cv3Mat2atIfEERT_ii(ptr noundef nonnull align 8 dereferenceable(96) %0, i32 noundef 0, i32 noundef 2)
          to label %26 unwind label %62

26:                                               ; preds = %24
  %27 = invoke noundef nonnull align 8 dereferenceable(16) ptr @_ZNSirsERf(ptr noundef nonnull align 8 dereferenceable(16) %23, ptr noundef nonnull align 4 dereferenceable(4) %25)
          to label %28 unwind label %62

28:                                               ; preds = %26
  %29 = invoke noundef nonnull align 4 dereferenceable(4) ptr @_ZN2cv3Mat2atIfEERT_ii(ptr noundef nonnull align 8 dereferenceable(96) %0, i32 noundef 1, i32 noundef 0)
          to label %30 unwind label %62

30:                                               ; preds = %28
  %31 = invoke noundef nonnull align 8 dereferenceable(16) ptr @_ZNSirsERf(ptr noundef nonnull align 8 dereferenceable(16) %27, ptr noundef nonnull align 4 dereferenceable(4) %29)
          to label %32 unwind label %62

32:                                               ; preds = %30
  %33 = invoke noundef nonnull align 4 dereferenceable(4) ptr @_ZN2cv3Mat2atIfEERT_ii(ptr noundef nonnull align 8 dereferenceable(96) %0, i32 noundef 1, i32 noundef 1)
          to label %34 unwind label %62

34:                                               ; preds = %32
  %35 = invoke noundef nonnull align 8 dereferenceable(16) ptr @_ZNSirsERf(ptr noundef nonnull align 8 dereferenceable(16) %31, ptr noundef nonnull align 4 dereferenceable(4) %33)
          to label %36 unwind label %62

36:                                               ; preds = %34
  %37 = invoke noundef nonnull align 4 dereferenceable(4) ptr @_ZN2cv3Mat2atIfEERT_ii(ptr noundef nonnull align 8 dereferenceable(96) %0, i32 noundef 1, i32 noundef 2)
          to label %38 unwind label %62

38:                                               ; preds = %36
  %39 = invoke noundef nonnull align 8 dereferenceable(16) ptr @_ZNSirsERf(ptr noundef nonnull align 8 dereferenceable(16) %35, ptr noundef nonnull align 4 dereferenceable(4) %37)
          to label %40 unwind label %62

40:                                               ; preds = %38
  %41 = invoke noundef nonnull align 4 dereferenceable(4) ptr @_ZN2cv3Mat2atIfEERT_ii(ptr noundef nonnull align 8 dereferenceable(96) %0, i32 noundef 2, i32 noundef 0)
          to label %42 unwind label %62

42:                                               ; preds = %40
  %43 = invoke noundef nonnull align 8 dereferenceable(16) ptr @_ZNSirsERf(ptr noundef nonnull align 8 dereferenceable(16) %39, ptr noundef nonnull align 4 dereferenceable(4) %41)
          to label %44 unwind label %62

44:                                               ; preds = %42
  %45 = invoke noundef nonnull align 4 dereferenceable(4) ptr @_ZN2cv3Mat2atIfEERT_ii(ptr noundef nonnull align 8 dereferenceable(96) %0, i32 noundef 2, i32 noundef 1)
          to label %46 unwind label %62

46:                                               ; preds = %44
  %47 = invoke noundef nonnull align 8 dereferenceable(16) ptr @_ZNSirsERf(ptr noundef nonnull align 8 dereferenceable(16) %43, ptr noundef nonnull align 4 dereferenceable(4) %45)
          to label %48 unwind label %62

48:                                               ; preds = %46
  %49 = invoke noundef nonnull align 4 dereferenceable(4) ptr @_ZN2cv3Mat2atIfEERT_ii(ptr noundef nonnull align 8 dereferenceable(96) %0, i32 noundef 2, i32 noundef 2)
          to label %50 unwind label %62

50:                                               ; preds = %48
  %51 = invoke noundef nonnull align 8 dereferenceable(16) ptr @_ZNSirsERf(ptr noundef nonnull align 8 dereferenceable(16) %47, ptr noundef nonnull align 4 dereferenceable(4) %49)
          to label %52 unwind label %62

52:                                               ; preds = %50
  %53 = invoke noundef nonnull align 8 dereferenceable(16) ptr @_ZNSirsERb(ptr noundef nonnull align 8 dereferenceable(16) %51, ptr noundef nonnull align 1 dereferenceable(1) %12)
          to label %54 unwind label %62

54:                                               ; preds = %52
  %55 = load ptr, ptr %10, align 8
  %56 = icmp ne ptr %55, null
  br i1 %56, label %57, label %66

57:                                               ; preds = %54
  %58 = load i8, ptr %12, align 1
  %59 = trunc i8 %58 to i1
  %60 = load ptr, ptr %10, align 8
  %61 = zext i1 %59 to i8
  store i8 %61, ptr %60, align 1
  br label %66

62:                                               ; preds = %52, %50, %48, %46, %44, %42, %40, %38, %36, %34, %32, %30, %28, %26, %24, %22, %20, %18, %5
  %63 = landingpad { ptr, i32 }
          cleanup
  %64 = extractvalue { ptr, i32 } %63, 0
  store ptr %64, ptr %13, align 8
  %65 = extractvalue { ptr, i32 } %63, 1
  store i32 %65, ptr %14, align 4
  call void @_ZN2cv3MatD1Ev(ptr noundef nonnull align 8 dereferenceable(96) %0) #3
  br label %70

66:                                               ; preds = %57, %54
  store i1 true, ptr %11, align 1
  %67 = load i1, ptr %11, align 1
  br i1 %67, label %69, label %68

68:                                               ; preds = %66
  call void @_ZN2cv3MatD1Ev(ptr noundef nonnull align 8 dereferenceable(96) %0) #3
  br label %69

69:                                               ; preds = %68, %66
  ret void

70:                                               ; preds = %62
  %71 = load ptr, ptr %13, align 8
  %72 = load i32, ptr %14, align 4
  %73 = insertvalue { ptr, i32 } poison, ptr %71, 0
  %74 = insertvalue { ptr, i32 } %73, i32 %72, 1
  resume { ptr, i32 } %74
}