; Function Attrs: mustprogress uwtable
define void @_ZN2cv9videostab20FromFileMotionReader8estimateERKNS_3MatES4_Pb(ptr dead_on_unwind noalias nonnull writable sret(%"class.cv::Mat") align 8 %0, ptr noundef nonnull align 8 dereferenceable(536) %1, ptr nocapture nonnull readnone align 8 %2, ptr nocapture nonnull readnone align 8 %3, ptr noundef writeonly %4) unnamed_addr #3 align 2 personality ptr @__gxx_personality_v0 {
  %6 = alloca i8, align 1
  tail call void @_ZN2cv3MatC1Eiii(ptr noundef nonnull align 8 dereferenceable(96) %0, i32 noundef 3, i32 noundef 3, i32 noundef 5)
  %7 = getelementptr inbounds i8, ptr %1, i64 16
  %8 = getelementptr inbounds i8, ptr %0, i64 16
  %9 = load ptr, ptr %8, align 8
  %10 = getelementptr inbounds i8, ptr %0, i64 72
  %11 = invoke noundef nonnull align 8 dereferenceable(16) ptr @_ZNSirsERf(ptr noundef nonnull align 8 dereferenceable(16) %7, ptr noundef nonnull align 4 dereferenceable(4) %9)
          to label %12 unwind label %69

12:                                               ; preds = %5
  %13 = load ptr, ptr %8, align 8
  %14 = getelementptr inbounds i8, ptr %13, i64 4
  %15 = invoke noundef nonnull align 8 dereferenceable(16) ptr @_ZNSirsERf(ptr noundef nonnull align 8 dereferenceable(16) %11, ptr noundef nonnull align 4 dereferenceable(4) %14)
          to label %16 unwind label %69

16:                                               ; preds = %12
  %17 = load ptr, ptr %8, align 8
  %18 = getelementptr inbounds i8, ptr %17, i64 8
  %19 = invoke noundef nonnull align 8 dereferenceable(16) ptr @_ZNSirsERf(ptr noundef nonnull align 8 dereferenceable(16) %15, ptr noundef nonnull align 4 dereferenceable(4) %18)
          to label %20 unwind label %69

20:                                               ; preds = %16
  %21 = load ptr, ptr %8, align 8
  %22 = load ptr, ptr %10, align 8
  %23 = load i64, ptr %22, align 8
  %24 = getelementptr inbounds i8, ptr %21, i64 %23
  %25 = invoke noundef nonnull align 8 dereferenceable(16) ptr @_ZNSirsERf(ptr noundef nonnull align 8 dereferenceable(16) %19, ptr noundef nonnull align 4 dereferenceable(4) %24)
          to label %26 unwind label %69

26:                                               ; preds = %20
  %27 = load ptr, ptr %8, align 8
  %28 = load ptr, ptr %10, align 8
  %29 = load i64, ptr %28, align 8
  %30 = getelementptr inbounds i8, ptr %27, i64 %29
  %31 = getelementptr inbounds i8, ptr %30, i64 4
  %32 = invoke noundef nonnull align 8 dereferenceable(16) ptr @_ZNSirsERf(ptr noundef nonnull align 8 dereferenceable(16) %25, ptr noundef nonnull align 4 dereferenceable(4) %31)
          to label %33 unwind label %69

33:                                               ; preds = %26
  %34 = load ptr, ptr %8, align 8
  %35 = load ptr, ptr %10, align 8
  %36 = load i64, ptr %35, align 8
  %37 = getelementptr inbounds i8, ptr %34, i64 %36
  %38 = getelementptr inbounds i8, ptr %37, i64 8
  %39 = invoke noundef nonnull align 8 dereferenceable(16) ptr @_ZNSirsERf(ptr noundef nonnull align 8 dereferenceable(16) %32, ptr noundef nonnull align 4 dereferenceable(4) %38)
          to label %40 unwind label %69

40:                                               ; preds = %33
  %41 = load ptr, ptr %8, align 8
  %42 = load ptr, ptr %10, align 8
  %43 = load i64, ptr %42, align 8
  %44 = shl i64 %43, 1
  %45 = getelementptr inbounds i8, ptr %41, i64 %44
  %46 = invoke noundef nonnull align 8 dereferenceable(16) ptr @_ZNSirsERf(ptr noundef nonnull align 8 dereferenceable(16) %39, ptr noundef nonnull align 4 dereferenceable(4) %45)
          to label %47 unwind label %69

47:                                               ; preds = %40
  %48 = load ptr, ptr %8, align 8
  %49 = load ptr, ptr %10, align 8
  %50 = load i64, ptr %49, align 8
  %51 = shl i64 %50, 1
  %52 = getelementptr inbounds i8, ptr %48, i64 %51
  %53 = getelementptr inbounds i8, ptr %52, i64 4
  %54 = invoke noundef nonnull align 8 dereferenceable(16) ptr @_ZNSirsERf(ptr noundef nonnull align 8 dereferenceable(16) %46, ptr noundef nonnull align 4 dereferenceable(4) %53)
          to label %55 unwind label %69

55:                                               ; preds = %47
  %56 = load ptr, ptr %8, align 8
  %57 = load ptr, ptr %10, align 8
  %58 = load i64, ptr %57, align 8
  %59 = shl i64 %58, 1
  %60 = getelementptr inbounds i8, ptr %56, i64 %59
  %61 = getelementptr inbounds i8, ptr %60, i64 8
  %62 = invoke noundef nonnull align 8 dereferenceable(16) ptr @_ZNSirsERf(ptr noundef nonnull align 8 dereferenceable(16) %54, ptr noundef nonnull align 4 dereferenceable(4) %61)
          to label %63 unwind label %69

63:                                               ; preds = %55
  %64 = invoke noundef nonnull align 8 dereferenceable(16) ptr @_ZNSirsERb(ptr noundef nonnull align 8 dereferenceable(16) %62, ptr noundef nonnull align 1 dereferenceable(1) %6)
          to label %65 unwind label %69

65:                                               ; preds = %63
  %.not = icmp eq ptr %4, null
  br i1 %.not, label %71, label %66

66:                                               ; preds = %65
  %67 = load i8, ptr %6, align 1
  %68 = and i8 %67, 1
  store i8 %68, ptr %4, align 1
  br label %71

69:                                               ; preds = %63, %55, %47, %40, %33, %26, %20, %16, %12, %5
  %70 = landingpad { ptr, i32 }
          cleanup
  call void @_ZN2cv3MatD1Ev(ptr noundef nonnull align 8 dereferenceable(96) %0) #21
  resume { ptr, i32 } %70

71:                                               ; preds = %65, %66
  ret void
}